; Function Attrs: mustprogress uwtable
define internal void @_ZN10__cxxabiv1L22exception_cleanup_funcE19_Unwind_Reason_CodeP17_Unwind_Exception(i32 noundef %0, ptr noundef %1) #9 personality ptr @__gxx_personality_v0 {
  %.not = icmp eq i32 %0, 1
  br i1 %.not, label %6, label %3

3:                                                ; preds = %2
  %4 = getelementptr inbounds i8, ptr %1, i64 -56
  %5 = load ptr, ptr %4, align 8, !tbaa !22
  tail call void @_ZSt11__terminatePFvvE(ptr noundef %5) #16
  unreachable

6:                                                ; preds = %2
  %7 = getelementptr inbounds nuw i8, ptr %1, i64 32
  %8 = getelementptr inbounds i8, ptr %1, i64 -96
  %9 = getelementptr inbounds i8, ptr %1, i64 -88
  %10 = atomicrmw add ptr %9, i64 -1 seq_cst, align 8
  %11 = icmp eq i64 %10, 1
  br i1 %11, label %12, label %__cxa_decrement_exception_refcount.exit

12:                                               ; preds = %6
  %13 = getelementptr inbounds i8, ptr %1, i64 -72
  %14 = load ptr, ptr %13, align 8, !tbaa !24
  %.not8.i = icmp eq ptr %14, null
  br i1 %.not8.i, label %16, label %15

15:                                               ; preds = %12
  invoke void %14(ptr noundef nonnull %7)
          to label %16 unwind label %20

16:                                               ; preds = %15, %12
  invoke void @_ZN10__cxxabiv128__aligned_free_with_fallbackEPv(ptr noundef nonnull %8)
          to label %__cxa_decrement_exception_refcount.exit unwind label %17

17:                                               ; preds = %16
  %18 = landingpad { ptr, i32 }
          catch ptr null
  %19 = extractvalue { ptr, i32 } %18, 0
  tail call void @__clang_call_terminate(ptr %19) #16
  unreachable

20:                                               ; preds = %15
  %21 = landingpad { ptr, i32 }
          catch ptr null
  %22 = extractvalue { ptr, i32 } %21, 0
  tail call void @__clang_call_terminate(ptr %22) #16
  unreachable

__cxa_decrement_exception_refcount.exit:          ; preds = %6, %16
  ret void
}